target datalayout = "e-m:e-p270:32:32-p271:32:32-p272:64:64-i64:64-i128:128-f80:128-n8:16:32:64-S128"
target triple = "x86_64-pc-linux-gnu"

%struct.OSSL_TIME = type { i64 }

@fake_now_lock = internal global ptr null, align 8
@fake_now = internal global %struct.OSSL_TIME zeroinitializer, align 8

; Function Attrs: inlinehint nounwind uwtable
define internal i64 @ossl_time_infinite() #5 {
  %1 = alloca %struct.OSSL_TIME, align 8
  %2 = call i64 @ossl_ticks2time(i64 noundef -1)
  %3 = getelementptr inbounds nuw %struct.OSSL_TIME, ptr %1, i32 0, i32 0
  store i64 %2, ptr %3, align 8
  %4 = getelementptr inbounds nuw %struct.OSSL_TIME, ptr %1, i32 0, i32 0
  %5 = load i64, ptr %4, align 8
  ret i64 %5
}

; Function Attrs: inlinehint nounwind uwtable
define internal i64 @safe_add_time(i64 noundef %0, i64 noundef %1, ptr noundef %2) #5 {
  %4 = alloca i64, align 8
  %5 = alloca i64, align 8
  %6 = alloca i64, align 8
  %7 = alloca ptr, align 8
  %8 = alloca i64, align 8
  %9 = alloca i32, align 4
  store i64 %0, ptr %5, align 8, !tbaa !62
  store i64 %1, ptr %6, align 8, !tbaa !62
  store ptr %2, ptr %7, align 8, !tbaa !127
  call void @llvm.lifetime.start.p0(i64 8, ptr %8) #8
  %10 = load i64, ptr %5, align 8, !tbaa !62
  %11 = load i64, ptr %6, align 8, !tbaa !62
  %12 = call { i64, i1 } @llvm.uadd.with.overflow.i64(i64 %10, i64 %11)
  %13 = extractvalue { i64, i1 } %12, 1
  %14 = extractvalue { i64, i1 } %12, 0
  store i64 %14, ptr %8, align 8
  br i1 %13, label %17, label %15

15:                                               ; preds = %3
  %16 = load i64, ptr %8, align 8, !tbaa !62
  store i64 %16, ptr %4, align 8
  store i32 1, ptr %9, align 4
  br label %24

17:                                               ; preds = %3
  %18 = load ptr, ptr %7, align 8, !tbaa !127
  %19 = load i32, ptr %18, align 4, !tbaa !13
  %20 = or i32 %19, 1
  store i32 %20, ptr %18, align 4, !tbaa !13
  %21 = load i64, ptr %5, align 8, !tbaa !62
  %22 = load i64, ptr %6, align 8, !tbaa !62
  %23 = add i64 %21, %22
  store i64 %23, ptr %4, align 8
  store i32 1, ptr %9, align 4
  br label %24

24:                                               ; preds = %17, %15
  call void @llvm.lifetime.end.p0(i64 8, ptr %8) #8
  %25 = load i64, ptr %4, align 8
  ret i64 %25
}

; Function Attrs: inlinehint nounwind uwtable
define internal i64 @ossl_time_add(i64 %0, i64 %1) #5 {
  %3 = alloca %struct.OSSL_TIME, align 8
  %4 = alloca %struct.OSSL_TIME, align 8
  %5 = alloca %struct.OSSL_TIME, align 8
  %6 = alloca %struct.OSSL_TIME, align 8
  %7 = alloca i32, align 4
  %8 = getelementptr inbounds nuw %struct.OSSL_TIME, ptr %4, i32 0, i32 0
  store i64 %0, ptr %8, align 8
  %9 = getelementptr inbounds nuw %struct.OSSL_TIME, ptr %5, i32 0, i32 0
  store i64 %1, ptr %9, align 8
  call void @llvm.lifetime.start.p0(i64 8, ptr %6) #8
  call void @llvm.lifetime.start.p0(i64 4, ptr %7) #8
  store i32 0, ptr %7, align 4, !tbaa !13
  %10 = getelementptr inbounds nuw %struct.OSSL_TIME, ptr %4, i32 0, i32 0
  %11 = load i64, ptr %10, align 8, !tbaa !72
  %12 = getelementptr inbounds nuw %struct.OSSL_TIME, ptr %5, i32 0, i32 0
  %13 = load i64, ptr %12, align 8, !tbaa !72
  %14 = call i64 @safe_add_time(i64 noundef %11, i64 noundef %13, ptr noundef %7)
  %15 = getelementptr inbounds nuw %struct.OSSL_TIME, ptr %6, i32 0, i32 0
  store i64 %14, ptr %15, align 8, !tbaa !72
  %16 = load i32, ptr %7, align 4, !tbaa !13
  %17 = icmp ne i32 %16, 0
  br i1 %17, label %18, label %21

18:                                               ; preds = %2
  %19 = call i64 @ossl_time_infinite()
  %20 = getelementptr inbounds nuw %struct.OSSL_TIME, ptr %3, i32 0, i32 0
  store i64 %19, ptr %20, align 8
  br label %22

21:                                               ; preds = %2
  call void @llvm.memcpy.p0.p0.i64(ptr align 8 %3, ptr align 8 %6, i64 8, i1 false), !tbaa.struct !71
  br label %22

22:                                               ; preds = %21, %18
  call void @llvm.lifetime.end.p0(i64 4, ptr %7) #8
  call void @llvm.lifetime.end.p0(i64 8, ptr %6) #8
  %23 = getelementptr inbounds nuw %struct.OSSL_TIME, ptr %3, i32 0, i32 0
  %24 = load i64, ptr %23, align 8
  ret i64 %24
}

; Function Attrs: inlinehint nounwind uwtable
define internal i64 @ossl_ticks2time(i64 noundef %0) #5 {
  %2 = alloca %struct.OSSL_TIME, align 8
  %3 = alloca i64, align 8
  store i64 %0, ptr %3, align 8, !tbaa !62
  %4 = load i64, ptr %3, align 8, !tbaa !62
  %5 = getelementptr inbounds nuw %struct.OSSL_TIME, ptr %2, i32 0, i32 0
  store i64 %4, ptr %5, align 8, !tbaa !72
  %6 = getelementptr inbounds nuw %struct.OSSL_TIME, ptr %2, i32 0, i32 0
  %7 = load i64, ptr %6, align 8
  ret i64 %7
}

; Function Attrs: nounwind uwtable
define dso_local void @qtest_add_time(i64 noundef %0) #0 {
  %2 = alloca i64, align 8
  %3 = alloca %struct.OSSL_TIME, align 8
  %4 = alloca %struct.OSSL_TIME, align 8
  store i64 %0, ptr %2, align 8, !tbaa !62
  %5 = load ptr, ptr @fake_now_lock, align 8, !tbaa !56
  %6 = call i32 @CRYPTO_THREAD_write_lock(ptr noundef %5)
  %7 = icmp ne i32 %6, 0
  br i1 %7, label %9, label %8

8:                                                ; preds = %1
  br label %21

9:                                                ; preds = %1
  call void @llvm.lifetime.start.p0(i64 8, ptr %3) #8
  %10 = load i64, ptr %2, align 8, !tbaa !62
  %11 = mul i64 %10, 1000000
  %12 = call i64 @ossl_ticks2time(i64 noundef %11)
  %13 = getelementptr inbounds nuw %struct.OSSL_TIME, ptr %4, i32 0, i32 0
  store i64 %12, ptr %13, align 8
  %14 = load i64, ptr @fake_now, align 8
  %15 = getelementptr inbounds nuw %struct.OSSL_TIME, ptr %4, i32 0, i32 0
  %16 = load i64, ptr %15, align 8
  %17 = call i64 @ossl_time_add(i64 %14, i64 %16)
  %18 = getelementptr inbounds nuw %struct.OSSL_TIME, ptr %3, i32 0, i32 0
  store i64 %17, ptr %18, align 8
  call void @llvm.memcpy.p0.p0.i64(ptr align 8 @fake_now, ptr align 8 %3, i64 8, i1 false), !tbaa.struct !71
  call void @llvm.lifetime.end.p0(i64 8, ptr %3) #8
  %19 = load ptr, ptr @fake_now_lock, align 8, !tbaa !56
  %20 = call i32 @CRYPTO_THREAD_unlock(ptr noundef %19)
  br label %21

21:                                               ; preds = %9, %8
  ret void
}