; Function Attrs: nounwind uwtable
define dso_local void @qtest_add_time(i64 noundef %0) local_unnamed_addr #0 {
  %2 = load ptr, ptr @fake_now_lock, align 8, !tbaa !42
  %3 = tail call i32 @CRYPTO_THREAD_write_lock(ptr noundef %2) #10
  %.not = icmp eq i32 %3, 0
  br i1 %.not, label %9, label %4

4:                                                ; preds = %1
  %5 = mul i64 %0, 1000000
  %6 = load i64, ptr @fake_now.0, align 8
  %.sroa.03.0.i = tail call i64 @llvm.uadd.sat.i64(i64 %6, i64 %5)
  store i64 %.sroa.03.0.i, ptr @fake_now.0, align 8, !tbaa !46
  %7 = load ptr, ptr @fake_now_lock, align 8, !tbaa !42
  %8 = tail call i32 @CRYPTO_THREAD_unlock(ptr noundef %7) #10
  br label %9

9:                                                ; preds = %1, %4
  ret void
}